target datalayout = "e-m:e-p270:32:32-p271:32:32-p272:64:64-i64:64-i128:128-f80:128-n8:16:32:64-S128"
target triple = "x86_64-pc-linux-gnu"

@.str.13 = private unnamed_addr constant [7 x i8] c".ready\00", align 1
@.str.17 = private unnamed_addr constant [6 x i8] c".done\00", align 1
@.str.19 = private unnamed_addr constant [27 x i8] c"pg_wal/archive_status/%s%s\00", align 1

; Function Attrs: inlinehint nounwind uwtable
define internal void @StatusFilePath(ptr noundef %0, ptr noundef %1, ptr noundef %2) #7 {
  %4 = alloca ptr, align 8
  %5 = alloca ptr, align 8
  %6 = alloca ptr, align 8
  store ptr %0, ptr %4, align 8
  store ptr %1, ptr %5, align 8
  store ptr %2, ptr %6, align 8
  %7 = load ptr, ptr %4, align 8
  %8 = load ptr, ptr %5, align 8
  %9 = load ptr, ptr %6, align 8
  %10 = call i32 (ptr, i64, ptr, ...) @pg_snprintf(ptr noundef %7, i64 noundef 1024, ptr noundef @.str.19, ptr noundef %8, ptr noundef %9)
  ret void
}

; Function Attrs: nounwind uwtable
define dso_local void @XLogArchiveCleanup(ptr noundef %0) #0 {
  %2 = alloca ptr, align 8
  %3 = alloca [1024 x i8], align 16
  store ptr %0, ptr %2, align 8
  call void @llvm.lifetime.start.p0(i64 1024, ptr %3) #10
  %4 = getelementptr inbounds [1024 x i8], ptr %3, i64 0, i64 0
  %5 = load ptr, ptr %2, align 8
  call void @StatusFilePath(ptr noundef %4, ptr noundef %5, ptr noundef @.str.17)
  %6 = getelementptr inbounds [1024 x i8], ptr %3, i64 0, i64 0
  %7 = call i32 @unlink(ptr noundef %6) #10
  %8 = getelementptr inbounds [1024 x i8], ptr %3, i64 0, i64 0
  %9 = load ptr, ptr %2, align 8
  call void @StatusFilePath(ptr noundef %8, ptr noundef %9, ptr noundef @.str.13)
  %10 = getelementptr inbounds [1024 x i8], ptr %3, i64 0, i64 0
  %11 = call i32 @unlink(ptr noundef %10) #10
  call void @llvm.lifetime.end.p0(i64 1024, ptr %3) #10
  ret void
}