; Function Attrs: nounwind uwtable
define dso_local void @XLogArchiveCleanup(ptr noundef %0) local_unnamed_addr #0 {
  %2 = alloca [1024 x i8], align 16
  call void @llvm.lifetime.start.p0(i64 1024, ptr nonnull %2) #11
  %3 = call i32 (ptr, i64, ptr, ...) @pg_snprintf(ptr noundef nonnull %2, i64 noundef 1024, ptr noundef nonnull @.str.19, ptr noundef %0, ptr noundef nonnull @.str.17) #11
  %4 = call i32 @unlink(ptr noundef nonnull %2) #11
  %5 = call i32 (ptr, i64, ptr, ...) @pg_snprintf(ptr noundef nonnull %2, i64 noundef 1024, ptr noundef nonnull @.str.19, ptr noundef %0, ptr noundef nonnull @.str.13) #11
  %6 = call i32 @unlink(ptr noundef nonnull %2) #11
  call void @llvm.lifetime.end.p0(i64 1024, ptr nonnull %2) #11
  ret void
}